#include <math.h>
#include <stdio.h>
#include <stdlib.h>
#include <string.h>
#include <iostream>
using namespace std;

//****************************************************** 
//* ? ? ?   ?? ? ? ? ? ? ?                  *
//* ? ?      ?? ? ?                              *
//* ? ? ? ??2010 ? 12 ? 8 ?                    * 
//* ? ? ? ??? ? ? ? ? ? ?                  *
//* ? ?      ?1000010439                            *
//******************************************************
int main()
{
    char a[100];                               //??????? 
    int b,i;                                   //b???????? 
    char *p;                                   //?????????? 
    cin.getline(a,100);                        //????? 
    p = a;                                     //????????????? 
    b = strlen(a);
    for(;p<a+b;)
    {   
       if(*p ==' ')                            //?????? 
       {
          p++;                                 //???????? 
          if(*p != ' ')                        //???????,???????,??????????????????? 
          {
             cout << " " <<*p;
             p++;                              //???? 
          }
       }
       else                                    //??,?????? 
       {
          cout << *p;
          p++;
       }
    }
    return 0;
}
